; Function Attrs: mustprogress uwtable
define noundef zeroext i1 @_ZN32pxrInternal_v0_24__pxrReserved__26SdfNamespaceEdit_Namespace5ApplyERKNS_16SdfNamespaceEditEPNSt7__cxx1112basic_stringIcSt11char_traitsIcESaIcEEE(ptr noundef nonnull align 8 dereferenceable(144) %0, ptr noundef nonnull align 4 dereferenceable(20) %1, ptr noundef %2) local_unnamed_addr #0 align 2 {
  %4 = getelementptr inbounds nuw i8, ptr %1, i64 8
  %5 = load i32, ptr %4, align 4
  %.not.i = icmp eq i32 %5, 0
  br i1 %.not.i, label %6, label %8

6:                                                ; preds = %3
  %7 = tail call noundef zeroext i1 @_ZN32pxrInternal_v0_24__pxrReserved__26SdfNamespaceEdit_Namespace7_RemoveERKNS_7SdfPathEPNSt7__cxx1112basic_stringIcSt11char_traitsIcESaIcEEE(ptr noundef nonnull align 8 dereferenceable(144) %0, ptr noundef nonnull align 4 dereferenceable(8) %1, ptr noundef %2)
  br label %11

8:                                                ; preds = %3
  %.0.copyload.i.i.i = load i64, ptr %1, align 4
  %.0.copyload.i2.i.i = load i64, ptr %4, align 4
  %.not = icmp eq i64 %.0.copyload.i.i.i, %.0.copyload.i2.i.i
  br i1 %.not, label %11, label %9

9:                                                ; preds = %8
  %10 = tail call noundef zeroext i1 @_ZN32pxrInternal_v0_24__pxrReserved__26SdfNamespaceEdit_Namespace5_MoveERKNS_7SdfPathES3_PNSt7__cxx1112basic_stringIcSt11char_traitsIcESaIcEEE(ptr noundef nonnull align 8 dereferenceable(144) %0, ptr noundef nonnull align 4 dereferenceable(8) %1, ptr noundef nonnull align 4 dereferenceable(8) %4, ptr noundef %2)
  br label %11

11:                                               ; preds = %8, %9, %6
  %.0 = phi i1 [ %7, %6 ], [ %10, %9 ], [ true, %8 ]
  ret i1 %.0
}